; Function Attrs: mustprogress uwtable
define hidden void @_ZN4cvc58internal6theory11quantifiers24AlphaEquivalenceTypeNodeC2EPNS_7context7ContextE(ptr noundef nonnull align 8 dereferenceable(160) %this, ptr noundef %c) unnamed_addr #3 align 2 personality ptr @__gxx_personality_v0 {
entry:
  %0 = getelementptr inbounds i8, ptr %this, i64 8
  store i32 0, ptr %0, align 8
  %_M_parent.i.i.i.i.i = getelementptr inbounds i8, ptr %this, i64 16
  store ptr null, ptr %_M_parent.i.i.i.i.i, align 8
  %_M_left.i.i.i.i.i = getelementptr inbounds i8, ptr %this, i64 24
  store ptr %0, ptr %_M_left.i.i.i.i.i, align 8
  %_M_right.i.i.i.i.i = getelementptr inbounds i8, ptr %this, i64 32
  store ptr %0, ptr %_M_right.i.i.i.i.i, align 8
  %_M_node_count.i.i.i.i.i = getelementptr inbounds i8, ptr %this, i64 40
  store i64 0, ptr %_M_node_count.i.i.i.i.i, align 8
  %d_quant = getelementptr inbounds i8, ptr %this, i64 48
  invoke void @_ZN4cvc57context10ContextObjC2EPNS0_7ContextE(ptr noundef nonnull align 8 dereferenceable(40) %d_quant, ptr noundef %c)
          to label %invoke.cont unwind label %lpad

invoke.cont:                                      ; preds = %entry
  store ptr getelementptr inbounds ({ [6 x ptr] }, ptr @_ZTVN4cvc57context9CDHashMapINS_8internal12NodeTemplateILb1EEES4_St4hashIS4_EEE, i64 0, i32 0, i64 2), ptr %d_quant, align 8
  %d_map.i = getelementptr inbounds i8, ptr %this, i64 88
  %1 = getelementptr inbounds i8, ptr %this, i64 120
  store i64 0, ptr %1, align 8
  %_M_single_bucket.i.i.i = getelementptr inbounds i8, ptr %this, i64 136
  store ptr %_M_single_bucket.i.i.i, ptr %d_map.i, align 8
  %_M_bucket_count.i.i.i = getelementptr inbounds i8, ptr %this, i64 96
  store i64 1, ptr %_M_bucket_count.i.i.i, align 8
  %_M_before_begin.i.i.i = getelementptr inbounds i8, ptr %this, i64 104
  tail call void @llvm.memset.p0.i64(ptr noundef nonnull align 8 dereferenceable(16) %_M_before_begin.i.i.i, i8 0, i64 16, i1 false)
  store float 1.000000e+00, ptr %1, align 8
  %_M_next_resize.i.i.i.i = getelementptr inbounds i8, ptr %this, i64 128
  %d_context.i = getelementptr inbounds i8, ptr %this, i64 152
  tail call void @llvm.memset.p0.i64(ptr noundef nonnull align 8 dereferenceable(24) %_M_next_resize.i.i.i.i, i8 0, i64 24, i1 false)
  store ptr %c, ptr %d_context.i, align 8
  ret void

lpad:                                             ; preds = %entry
  %2 = landingpad { ptr, i32 }
          cleanup
  tail call void @_ZNSt3mapISt4pairIN4cvc58internal8TypeNodeEmESt10unique_ptrINS2_6theory11quantifiers24AlphaEquivalenceTypeNodeESt14default_deleteIS8_EESt4lessIS4_ESaIS0_IKS4_SB_EEED2Ev(ptr noundef nonnull align 8 dereferenceable(48) %this) #20
  resume { ptr, i32 } %2
}